target datalayout = "e-m:e-p270:32:32-p271:32:32-p272:64:64-i64:64-i128:128-f80:128-n8:16:32:64-S128"
target triple = "x86_64-unknown-linux-gnu"

%"struct.hermes::vm::GCBase::CumulativeHeapStats" = type { i32, %"class.hermes::StatsAccumulator", %"class.hermes::StatsAccumulator", i32, %"class.hermes::StatsAccumulator.15", %"class.hermes::StatsAccumulator.15" }
%"class.hermes::StatsAccumulator" = type { i32, double, double, double, double }
%"class.hermes::StatsAccumulator.15" = type { i32, i64, i32, i32, double }
%"struct.hermes::vm::GCBase::HeapInfo" = type { i32, i64, i64, i64, i32, i64, i64, i32, %"struct.hermes::vm::GCBase::CumulativeHeapStats", %"struct.hermes::vm::GCBase::CumulativeHeapStats" }
%"struct.hermes::vm::CrashManager::HeapInformation" = type { i64, i64 }

; Function Attrs: mustprogress nounwind uwtable
define linkonce_odr hidden void @_ZN6hermes16StatsAccumulatorIjmEC2Ev(ptr noundef nonnull align 8 dereferenceable(32) %this) unnamed_addr #0 comdat align 2 {
entry:
  %this.addr = alloca ptr, align 8
  store ptr %this, ptr %this.addr, align 8
  %this1 = load ptr, ptr %this.addr, align 8
  %n_ = getelementptr inbounds %"class.hermes::StatsAccumulator.15", ptr %this1, i32 0, i32 0
  store i32 0, ptr %n_, align 8
  %sum_ = getelementptr inbounds %"class.hermes::StatsAccumulator.15", ptr %this1, i32 0, i32 1
  store i64 0, ptr %sum_, align 8
  %min_ = getelementptr inbounds %"class.hermes::StatsAccumulator.15", ptr %this1, i32 0, i32 2
  store i32 0, ptr %min_, align 8
  %max_ = getelementptr inbounds %"class.hermes::StatsAccumulator.15", ptr %this1, i32 0, i32 3
  store i32 0, ptr %max_, align 4
  %sumOfSquares_ = getelementptr inbounds %"class.hermes::StatsAccumulator.15", ptr %this1, i32 0, i32 4
  store double 0.000000e+00, ptr %sumOfSquares_, align 8
  ret void
}

; Function Attrs: mustprogress nounwind uwtable
define linkonce_odr hidden void @_ZN6hermes16StatsAccumulatorIddEC2Ev(ptr noundef nonnull align 8 dereferenceable(40) %this) unnamed_addr #0 comdat align 2 {
entry:
  %this.addr = alloca ptr, align 8
  store ptr %this, ptr %this.addr, align 8
  %this1 = load ptr, ptr %this.addr, align 8
  %n_ = getelementptr inbounds %"class.hermes::StatsAccumulator", ptr %this1, i32 0, i32 0
  store i32 0, ptr %n_, align 8
  %sum_ = getelementptr inbounds %"class.hermes::StatsAccumulator", ptr %this1, i32 0, i32 1
  store double 0.000000e+00, ptr %sum_, align 8
  %min_ = getelementptr inbounds %"class.hermes::StatsAccumulator", ptr %this1, i32 0, i32 2
  store double 0.000000e+00, ptr %min_, align 8
  %max_ = getelementptr inbounds %"class.hermes::StatsAccumulator", ptr %this1, i32 0, i32 3
  store double 0.000000e+00, ptr %max_, align 8
  %sumOfSquares_ = getelementptr inbounds %"class.hermes::StatsAccumulator", ptr %this1, i32 0, i32 4
  store double 0.000000e+00, ptr %sumOfSquares_, align 8
  ret void
}

; Function Attrs: mustprogress nounwind uwtable
define linkonce_odr hidden void @_ZN6hermes2vm6GCBase19CumulativeHeapStatsC2Ev(ptr noundef nonnull align 8 dereferenceable(160) %this) unnamed_addr #0 comdat align 2 {
entry:
  %this.addr = alloca ptr, align 8
  store ptr %this, ptr %this.addr, align 8
  %this1 = load ptr, ptr %this.addr, align 8
  %numCollections = getelementptr inbounds %"struct.hermes::vm::GCBase::CumulativeHeapStats", ptr %this1, i32 0, i32 0
  store i32 0, ptr %numCollections, align 8
  %gcWallTime = getelementptr inbounds %"struct.hermes::vm::GCBase::CumulativeHeapStats", ptr %this1, i32 0, i32 1
  call void @_ZN6hermes16StatsAccumulatorIddEC2Ev(ptr noundef nonnull align 8 dereferenceable(40) %gcWallTime) #18
  %gcCPUTime = getelementptr inbounds %"struct.hermes::vm::GCBase::CumulativeHeapStats", ptr %this1, i32 0, i32 2
  call void @_ZN6hermes16StatsAccumulatorIddEC2Ev(ptr noundef nonnull align 8 dereferenceable(40) %gcCPUTime) #18
  %finalHeapSize = getelementptr inbounds %"struct.hermes::vm::GCBase::CumulativeHeapStats", ptr %this1, i32 0, i32 3
  store i32 0, ptr %finalHeapSize, align 8
  %usedBefore = getelementptr inbounds %"struct.hermes::vm::GCBase::CumulativeHeapStats", ptr %this1, i32 0, i32 4
  call void @_ZN6hermes16StatsAccumulatorIjmEC2Ev(ptr noundef nonnull align 8 dereferenceable(32) %usedBefore) #18
  %usedAfter = getelementptr inbounds %"struct.hermes::vm::GCBase::CumulativeHeapStats", ptr %this1, i32 0, i32 5
  call void @_ZN6hermes16StatsAccumulatorIjmEC2Ev(ptr noundef nonnull align 8 dereferenceable(32) %usedAfter) #18
  ret void
}

; Function Attrs: mustprogress nounwind uwtable
define linkonce_odr hidden void @_ZN6hermes2vm6GCBase8HeapInfoC2Ev(ptr noundef nonnull align 8 dereferenceable(384) %this) unnamed_addr #0 comdat align 2 {
entry:
  %this.addr = alloca ptr, align 8
  store ptr %this, ptr %this.addr, align 8
  %this1 = load ptr, ptr %this.addr, align 8
  %numCollections = getelementptr inbounds %"struct.hermes::vm::GCBase::HeapInfo", ptr %this1, i32 0, i32 0
  store i32 0, ptr %numCollections, align 8
  %totalAllocatedBytes = getelementptr inbounds %"struct.hermes::vm::GCBase::HeapInfo", ptr %this1, i32 0, i32 1
  store i64 0, ptr %totalAllocatedBytes, align 8
  %allocatedBytes = getelementptr inbounds %"struct.hermes::vm::GCBase::HeapInfo", ptr %this1, i32 0, i32 2
  store i64 0, ptr %allocatedBytes, align 8
  %heapSize = getelementptr inbounds %"struct.hermes::vm::GCBase::HeapInfo", ptr %this1, i32 0, i32 3
  store i64 0, ptr %heapSize, align 8
  %mallocSizeEstimate = getelementptr inbounds %"struct.hermes::vm::GCBase::HeapInfo", ptr %this1, i32 0, i32 4
  store i32 0, ptr %mallocSizeEstimate, align 8
  %va = getelementptr inbounds %"struct.hermes::vm::GCBase::HeapInfo", ptr %this1, i32 0, i32 5
  store i64 0, ptr %va, align 8
  %externalBytes = getelementptr inbounds %"struct.hermes::vm::GCBase::HeapInfo", ptr %this1, i32 0, i32 6
  store i64 0, ptr %externalBytes, align 8
  %numMarkStackOverflows = getelementptr inbounds %"struct.hermes::vm::GCBase::HeapInfo", ptr %this1, i32 0, i32 7
  store i32 0, ptr %numMarkStackOverflows, align 8
  %fullStats = getelementptr inbounds %"struct.hermes::vm::GCBase::HeapInfo", ptr %this1, i32 0, i32 8
  call void @_ZN6hermes2vm6GCBase19CumulativeHeapStatsC2Ev(ptr noundef nonnull align 8 dereferenceable(160) %fullStats) #18
  %youngGenStats = getelementptr inbounds %"struct.hermes::vm::GCBase::HeapInfo", ptr %this1, i32 0, i32 9
  call void @_ZN6hermes2vm6GCBase19CumulativeHeapStatsC2Ev(ptr noundef nonnull align 8 dereferenceable(160) %youngGenStats) #18
  ret void
}

; Function Attrs: mustprogress nounwind uwtable
define hidden void @_ZN6hermes2vm7HadesGC23getCrashManagerHeapInfoERNS0_12CrashManager15HeapInformationE(ptr noundef nonnull align 8 dereferenceable(8152) %this, ptr noundef nonnull align 8 dereferenceable(16) %crashInfo) unnamed_addr #0 align 2 {
entry:
  %this.addr = alloca ptr, align 8
  %crashInfo.addr = alloca ptr, align 8
  %info = alloca %"struct.hermes::vm::GCBase::HeapInfo", align 8
  store ptr %this, ptr %this.addr, align 8
  store ptr %crashInfo, ptr %crashInfo.addr, align 8
  %this1 = load ptr, ptr %this.addr, align 8
  call void @_ZN6hermes2vm6GCBase8HeapInfoC2Ev(ptr noundef nonnull align 8 dereferenceable(384) %info) #18
  call void @_ZN6hermes2vm7HadesGC11getHeapInfoERNS0_6GCBase8HeapInfoE(ptr noundef nonnull align 8 dereferenceable(8152) %this1, ptr noundef nonnull align 8 dereferenceable(384) %info)
  %heapSize = getelementptr inbounds %"struct.hermes::vm::GCBase::HeapInfo", ptr %info, i32 0, i32 3
  %0 = load i64, ptr %heapSize, align 8
  %1 = load ptr, ptr %crashInfo.addr, align 8
  %size_ = getelementptr inbounds %"struct.hermes::vm::CrashManager::HeapInformation", ptr %1, i32 0, i32 1
  store i64 %0, ptr %size_, align 8
  %allocatedBytes = getelementptr inbounds %"struct.hermes::vm::GCBase::HeapInfo", ptr %info, i32 0, i32 2
  %2 = load i64, ptr %allocatedBytes, align 8
  %3 = load ptr, ptr %crashInfo.addr, align 8
  %used_ = getelementptr inbounds %"struct.hermes::vm::CrashManager::HeapInformation", ptr %3, i32 0, i32 0
  store i64 %2, ptr %used_, align 8
  ret void
}