; Function Attrs: mustprogress nounwind uwtable
define hidden void @_ZN6hermes2vm7HadesGC23getCrashManagerHeapInfoERNS0_12CrashManager15HeapInformationE(ptr noundef nonnull align 8 dereferenceable(8152) %this, ptr nocapture noundef nonnull writeonly align 8 dereferenceable(16) %crashInfo) unnamed_addr #4 align 2 {
entry:
  %info = alloca %"struct.hermes::vm::GCBase::HeapInfo", align 8
  store i32 0, ptr %info, align 8
  %totalAllocatedBytes.i = getelementptr inbounds i8, ptr %info, i64 8
  %va.i = getelementptr inbounds i8, ptr %info, i64 40
  %fullStats.i = getelementptr inbounds i8, ptr %info, i64 64
  store i32 0, ptr %fullStats.i, align 8
  %gcWallTime.i.i = getelementptr inbounds i8, ptr %info, i64 72
  store i32 0, ptr %gcWallTime.i.i, align 8
  %sum_.i.i.i = getelementptr inbounds i8, ptr %info, i64 80
  %sum_.i1.i.i = getelementptr inbounds i8, ptr %info, i64 120
  %usedBefore.i.i = getelementptr inbounds i8, ptr %info, i64 160
  store i32 0, ptr %usedBefore.i.i, align 8
  %sum_.i2.i.i = getelementptr inbounds i8, ptr %info, i64 168
  %sum_.i3.i.i = getelementptr inbounds i8, ptr %info, i64 200
  call void @llvm.memset.p0.i64(ptr noundef nonnull align 8 dereferenceable(36) %sum_.i.i.i, i8 0, i64 36, i1 false)
  call void @llvm.memset.p0.i64(ptr noundef nonnull align 8 dereferenceable(36) %sum_.i1.i.i, i8 0, i64 36, i1 false)
  call void @llvm.memset.p0.i64(ptr noundef nonnull align 8 dereferenceable(28) %sum_.i2.i.i, i8 0, i64 28, i1 false)
  %gcWallTime.i1.i = getelementptr inbounds i8, ptr %info, i64 232
  store i32 0, ptr %gcWallTime.i1.i, align 8
  %sum_.i.i2.i = getelementptr inbounds i8, ptr %info, i64 240
  %sum_.i1.i3.i = getelementptr inbounds i8, ptr %info, i64 280
  %usedBefore.i4.i = getelementptr inbounds i8, ptr %info, i64 320
  store i32 0, ptr %usedBefore.i4.i, align 8
  %sum_.i2.i5.i = getelementptr inbounds i8, ptr %info, i64 328
  %sum_.i3.i6.i = getelementptr inbounds i8, ptr %info, i64 360
  call void @llvm.memset.p0.i64(ptr noundef nonnull align 8 dereferenceable(24) %sum_.i3.i6.i, i8 0, i64 24, i1 false)
  call void @llvm.memset.p0.i64(ptr noundef nonnull align 8 dereferenceable(36) %sum_.i.i2.i, i8 0, i64 36, i1 false)
  call void @llvm.memset.p0.i64(ptr noundef nonnull align 8 dereferenceable(36) %sum_.i1.i3.i, i8 0, i64 36, i1 false)
  call void @llvm.memset.p0.i64(ptr noundef nonnull align 8 dereferenceable(28) %sum_.i2.i5.i, i8 0, i64 28, i1 false)
  call void @llvm.memset.p0.i64(ptr noundef nonnull align 8 dereferenceable(28) %totalAllocatedBytes.i, i8 0, i64 28, i1 false)
  call void @llvm.memset.p0.i64(ptr noundef nonnull align 8 dereferenceable(20) %va.i, i8 0, i64 20, i1 false)
  call void @llvm.memset.p0.i64(ptr noundef nonnull align 8 dereferenceable(28) %sum_.i3.i.i, i8 0, i64 28, i1 false)
  call void @_ZN6hermes2vm7HadesGC11getHeapInfoERNS0_6GCBase8HeapInfoE(ptr noundef nonnull align 8 dereferenceable(8152) %this, ptr noundef nonnull align 8 dereferenceable(384) %info)
  %allocatedBytes = getelementptr inbounds i8, ptr %info, i64 16
  %0 = load <2 x i64>, ptr %allocatedBytes, align 8
  store <2 x i64> %0, ptr %crashInfo, align 8
  ret void
}